(dp1
S'R4'
p2
(lp3
F0
aF0
aF0
aF0
aF0
aF0
aF0
aF0
aF0
aF0
aF0
aF0
aF0
aF0
aF0
aF0
aF0
aF0
aF0
aF0
aF0
aF0
aF0
aF0
aF0
aF0
aF0
aF0
aF0
aF0
aF0
aF0
aF0
aF0
aF0
aF0
aF0
aF0
aF0
aF0
aF0
aF0
aF0
aF0
aF0
aF0
aF0
aF0
aF0
aF0
asS'R5'
p4
(lp5
F0.011158798283261828
aF0.01373390557939913
aF0.014592274678111639
aF0.014592274678111639
aF0.014592274678111639
aF0.0068669527896996208
aF0.0068669527896996208
aF0.0068669527896996208
aF0.0068669527896996208
aF0.0068669527896996208
aF0.0042918454935622075
aF0.0042918454935622075
aF0.0042918454935622075
aF0.0042918454935622075
aF0.0042918454935622075
aF0.0042918454935622075
aF0.0042918454935622075
aF0.0042918454935622075
aF0.0042918454935622075
aF0.0042918454935622075
aF0.0034334763948498104
aF0.0034334763948498104
aF0.0034334763948498104
aF0.0034334763948498104
aF0.0034334763948498104
aF0.0025751072961373023
aF0.0025751072961373023
aF0.0025751072961373023
aF0.0025751072961373023
aF0.0025751072961373023
aF0.0017167381974249052
aF0.0017167381974249052
aF0.0017167381974249052
aF0.0017167381974249052
aF0.0017167381974249052
aF0.0017167381974249052
aF0.0017167381974249052
aF0.0017167381974249052
aF0.0017167381974249052
aF0.0017167381974249052
aF0
aF0
aF0
aF0
aF0
aF0
aF0
aF0
aF0
aF0
asS'All'
p6
(lp7
F0.46586715867158668
aF0.56088560885608851
aF0.56180811808118081
aF0.56180811808118081
aF0.56180811808118081
aF0.27859778597785978
aF0.27859778597785978
aF0.27859778597785978
aF0.27859778597785978
aF0.27859778597785978
aF0.12638376383763839
aF0.12638376383763839
aF0.12638376383763839
aF0.12638376383763839
aF0.12638376383763839
aF0.07011070110701112
aF0.07011070110701112
aF0.07011070110701112
aF0.07011070110701112
aF0.07011070110701112
aF0.030442804428044257
aF0.030442804428044257
aF0.030442804428044257
aF0.030442804428044257
aF0.030442804428044257
aF0.0064575645756457245
aF0.0064575645756457245
aF0.0064575645756457245
aF0.0064575645756457245
aF0.0064575645756457245
aF0.0036900369003689537
aF0.0036900369003689537
aF0.0036900369003689537
aF0.0036900369003689537
aF0.0036900369003689537
aF0.0027675276752767708
aF0.0027675276752767708
aF0.0027675276752767708
aF0.0027675276752767708
aF0.0027675276752767708
aF0.00092250922509229394
aF0.00092250922509229394
aF0.00092250922509229394
aF0.00092250922509229394
aF0.00092250922509229394
aF0.00092250922509229394
aF0.00092250922509229394
aF0.00092250922509229394
aF0.00092250922509229394
aF0.00092250922509229394
asS'R7'
p8
(lp9
F0
aF0
aF0
aF0
aF0
aF0
aF0
aF0
aF0
aF0
aF0
aF0
aF0
aF0
aF0
aF0
aF0
aF0
aF0
aF0
aF0
aF0
aF0
aF0
aF0
aF0
aF0
aF0
aF0
aF0
aF0
aF0
aF0
aF0
aF0
aF0
aF0
aF0
aF0
aF0
aF0
aF0
aF0
aF0
aF0
aF0
aF0
aF0
aF0
aF0
asS'R1'
p10
(lp11
F0.44010647737355812
aF0.53149955634427681
aF0.53149955634427681
aF0.53149955634427681
aF0.53149955634427681
aF0.26441881100266196
aF0.26441881100266196
aF0.26441881100266196
aF0.26441881100266196
aF0.26441881100266196
aF0.11801242236024845
aF0.11801242236024845
aF0.11801242236024845
aF0.11801242236024845
aF0.11801242236024845
aF0.062999112688553738
aF0.062999112688553738
aF0.062999112688553738
aF0.062999112688553738
aF0.062999112688553738
aF0.024844720496894457
aF0.024844720496894457
aF0.024844720496894457
aF0.024844720496894457
aF0.024844720496894457
aF0.003549245785270605
aF0.003549245785270605
aF0.003549245785270605
aF0.003549245785270605
aF0.003549245785270605
aF0.0017746228926353025
aF0.0017746228926353025
aF0.0017746228926353025
aF0.0017746228926353025
aF0.0017746228926353025
aF0.00088731144631770675
aF0.00088731144631770675
aF0.00088731144631770675
aF0.00088731144631770675
aF0.00088731144631770675
aF0.00088731144631770675
aF0.00088731144631770675
aF0.00088731144631770675
aF0.00088731144631770675
aF0.00088731144631770675
aF0.00088731144631770675
aF0.00088731144631770675
aF0.00088731144631770675
aF0.00088731144631770675
aF0.00088731144631770675
asS'R3'
p12
(lp13
F0.002622377622377603
aF0.002622377622377603
aF0.002622377622377603
aF0.002622377622377603
aF0.002622377622377603
aF0.0017482517482517723
aF0.0017482517482517723
aF0.0017482517482517723
aF0.0017482517482517723
aF0.0017482517482517723
aF0.0017482517482517723
aF0.0017482517482517723
aF0.0017482517482517723
aF0.0017482517482517723
aF0.0017482517482517723
aF0.00087412587412583065
aF0.00087412587412583065
aF0.00087412587412583065
aF0.00087412587412583065
aF0.00087412587412583065
aF0.00087412587412583065
aF0.00087412587412583065
aF0.00087412587412583065
aF0.00087412587412583065
aF0.00087412587412583065
aF0
aF0
aF0
aF0
aF0
aF0
aF0
aF0
aF0
aF0
aF0
aF0
aF0
aF0
aF0
aF0
aF0
aF0
aF0
aF0
aF0
aF0
aF0
aF0
aF0
asS'NA'
p14
(lp15
F0.14117647058823535
aF0.10588235294117643
aF0.10588235294117643
aF0.10588235294117643
aF0.10588235294117643
aF0.22352941176470587
aF0.22352941176470587
aF0.22352941176470587
aF0.22352941176470587
aF0.22352941176470587
aF0.51764705882352935
aF0.51764705882352935
aF0.51764705882352935
aF0.51764705882352935
aF0.51764705882352935
aF0.68235294117647061
aF0.68235294117647061
aF0.68235294117647061
aF0.68235294117647061
aF0.68235294117647061
aF0.82352941176470584
aF0.82352941176470584
aF0.82352941176470584
aF0.82352941176470584
aF0.82352941176470584
aF0.82352941176470584
aF0.82352941176470584
aF0.82352941176470584
aF0.82352941176470584
aF0.82352941176470584
aF0.87058823529411766
aF0.87058823529411766
aF0.87058823529411766
aF0.87058823529411766
aF0.87058823529411766
aF0.89411764705882357
aF0.89411764705882357
aF0.89411764705882357
aF0.89411764705882357
aF0.89411764705882357
aF0.92941176470588238
aF0.92941176470588238
aF0.92941176470588238
aF0.92941176470588238
aF0.92941176470588238
aF0.97647058823529409
aF0.97647058823529409
aF0.97647058823529409
aF0.97647058823529409
aF0.97647058823529409
as.