(dp1
S'R4'
p2
(lp3
F0
aF0
aF0
aF0
aF0
aF0
aF0
aF0
aF0
aF0
aF0
aF0
aF0
aF0
aF0
aF0
aF0
aF0
aF0
aF0
aF0
aF0
aF0
aF0
aF0
aF0
aF0
aF0
aF0
aF0
aF0
aF0
aF0
aF0
aF0
aF0
aF0
aF0
aF0
aF0
aF0
aF0
aF0
aF0
aF0
aF0
aF0
aF0
aF0
aF0
asS'R5'
p4
(lp5
F0.75
aF0.75
aF0.75
aF0.75
aF0.75
aF0.75
aF0.75
aF0.75
aF0.75
aF0.75
aF0.75
aF0.75
aF0.75
aF0.75
aF0.75
aF0.75
aF0.75
aF0.75
aF0.75
aF0.75
aF0.25
aF0.25
aF0.25
aF0.25
aF0.25
aF0.25
aF0.25
aF0.25
aF0.25
aF0.25
aF0.25
aF0.25
aF0.25
aF0.25
aF0.25
aF0.25
aF0.25
aF0.25
aF0.25
aF0.25
aF0
aF0
aF0
aF0
aF0
aF0
aF0
aF0
aF0
aF0
asS'All'
p6
(lp7
F0.85882352941176465
aF0.89411764705882357
aF0.89411764705882357
aF0.89411764705882357
aF0.89411764705882357
aF0.77647058823529413
aF0.77647058823529413
aF0.77647058823529413
aF0.77647058823529413
aF0.77647058823529413
aF0.4823529411764706
aF0.4823529411764706
aF0.4823529411764706
aF0.4823529411764706
aF0.4823529411764706
aF0.31764705882352939
aF0.31764705882352939
aF0.31764705882352939
aF0.31764705882352939
aF0.31764705882352939
aF0.17647058823529413
aF0.17647058823529413
aF0.17647058823529413
aF0.17647058823529413
aF0.17647058823529413
aF0.17647058823529413
aF0.17647058823529413
aF0.17647058823529413
aF0.17647058823529413
aF0.17647058823529413
aF0.12941176470588237
aF0.12941176470588237
aF0.12941176470588237
aF0.12941176470588237
aF0.12941176470588237
aF0.10588235294117647
aF0.10588235294117647
aF0.10588235294117647
aF0.10588235294117647
aF0.10588235294117647
aF0.070588235294117646
aF0.070588235294117646
aF0.070588235294117646
aF0.070588235294117646
aF0.070588235294117646
aF0.023529411764705882
aF0.023529411764705882
aF0.023529411764705882
aF0.023529411764705882
aF0.023529411764705882
asS'R7'
p8
(lp9
F0
aF0
aF0
aF0
aF0
aF0
aF0
aF0
aF0
aF0
aF0
aF0
aF0
aF0
aF0
aF0
aF0
aF0
aF0
aF0
aF0
aF0
aF0
aF0
aF0
aF0
aF0
aF0
aF0
aF0
aF0
aF0
aF0
aF0
aF0
aF0
aF0
aF0
aF0
aF0
aF0
aF0
aF0
aF0
aF0
aF0
aF0
aF0
aF0
aF0
asS'R1'
p10
(lp11
F0.97619047619047616
aF0.97619047619047616
aF0.97619047619047616
aF0.97619047619047616
aF0.97619047619047616
aF0.83333333333333337
aF0.83333333333333337
aF0.83333333333333337
aF0.83333333333333337
aF0.83333333333333337
aF0.33333333333333331
aF0.33333333333333331
aF0.33333333333333331
aF0.33333333333333331
aF0.33333333333333331
aF0.095238095238095233
aF0.095238095238095233
aF0.095238095238095233
aF0.095238095238095233
aF0.095238095238095233
aF0
aF0
aF0
aF0
aF0
aF0
aF0
aF0
aF0
aF0
aF0
aF0
aF0
aF0
aF0
aF0
aF0
aF0
aF0
aF0
aF0
aF0
aF0
aF0
aF0
aF0
aF0
aF0
aF0
aF0
asS'R3'
p12
(lp13
F0.88
aF0.88
aF0.88
aF0.88
aF0.88
aF0.88
aF0.88
aF0.88
aF0.88
aF0.88
aF0.83999999999999997
aF0.83999999999999997
aF0.83999999999999997
aF0.83999999999999997
aF0.83999999999999997
aF0.76000000000000001
aF0.76000000000000001
aF0.76000000000000001
aF0.76000000000000001
aF0.76000000000000001
aF0.56000000000000005
aF0.56000000000000005
aF0.56000000000000005
aF0.56000000000000005
aF0.56000000000000005
aF0.56000000000000005
aF0.56000000000000005
aF0.56000000000000005
aF0.56000000000000005
aF0.56000000000000005
aF0.40000000000000002
aF0.40000000000000002
aF0.40000000000000002
aF0.40000000000000002
aF0.40000000000000002
aF0.32000000000000001
aF0.32000000000000001
aF0.32000000000000001
aF0.32000000000000001
aF0.32000000000000001
aF0.23999999999999999
aF0.23999999999999999
aF0.23999999999999999
aF0.23999999999999999
aF0.23999999999999999
aF0.080000000000000002
aF0.080000000000000002
aF0.080000000000000002
aF0.080000000000000002
aF0.080000000000000002
asS'NA'
p14
(lp15
F0.53413284132841332
aF0.43911439114391143
aF0.43819188191881919
aF0.43819188191881919
aF0.43819188191881919
aF0.72140221402214022
aF0.72140221402214022
aF0.72140221402214022
aF0.72140221402214022
aF0.72140221402214022
aF0.87361623616236161
aF0.87361623616236161
aF0.87361623616236161
aF0.87361623616236161
aF0.87361623616236161
aF0.92988929889298888
aF0.92988929889298888
aF0.92988929889298888
aF0.92988929889298888
aF0.92988929889298888
aF0.96955719557195574
aF0.96955719557195574
aF0.96955719557195574
aF0.96955719557195574
aF0.96955719557195574
aF0.99354243542435428
aF0.99354243542435428
aF0.99354243542435428
aF0.99354243542435428
aF0.99354243542435428
aF0.99630996309963105
aF0.99630996309963105
aF0.99630996309963105
aF0.99630996309963105
aF0.99630996309963105
aF0.99723247232472323
aF0.99723247232472323
aF0.99723247232472323
aF0.99723247232472323
aF0.99723247232472323
aF0.99907749077490771
aF0.99907749077490771
aF0.99907749077490771
aF0.99907749077490771
aF0.99907749077490771
aF0.99907749077490771
aF0.99907749077490771
aF0.99907749077490771
aF0.99907749077490771
aF0.99907749077490771
as.